; ModuleID = '49/995.c'
source_filename = "49/995.c"
target datalayout = "e-m:e-p270:32:32-p271:32:32-p272:64:64-i64:64-f80:128-n8:16:32:64-S128"
target triple = "x86_64-pc-linux-gnu"

@.str = private unnamed_addr constant [4 x i8] c"%s\0A\00", align 1

; Function Attrs: noinline nounwind uwtable
define dso_local i32 @main() #0 {
  %1 = alloca i32, align 4
  %2 = alloca [501 x i8], align 16
  %3 = alloca [501 x i8], align 16
  %4 = alloca [501 x i8], align 16
  %5 = alloca i32, align 4
  %6 = alloca i32, align 4
  %7 = alloca i8*, align 8
  store i32 0, i32* %1, align 4
  %8 = getelementptr inbounds [501 x i8], [501 x i8]* %2, i64 0, i64 0
  store i8* %8, i8** %7, align 8
  %9 = getelementptr inbounds [501 x i8], [501 x i8]* %2, i64 0, i64 0
  %10 = call i32 (i8*, ...) bitcast (i32 (...)* @gets to i32 (i8*, ...)*)(i8* %9)
  %11 = getelementptr inbounds [501 x i8], [501 x i8]* %2, i64 0, i64 0
  %12 = call i64 @strlen(i8* %11) #4
  %13 = trunc i64 %12 to i32
  store i32 %13, i32* %5, align 4
  store i32 2, i32* %6, align 4
  br label %14

14:                                               ; preds = %58, %0
  %15 = load i32, i32* %6, align 4
  %16 = load i32, i32* %5, align 4
  %17 = icmp sle i32 %15, %16
  br i1 %17, label %18, label %61

18:                                               ; preds = %14
  %19 = getelementptr inbounds [501 x i8], [501 x i8]* %2, i64 0, i64 0
  store i8* %19, i8** %7, align 8
  br label %20

20:                                               ; preds = %54, %18
  %21 = load i8*, i8** %7, align 8
  %22 = getelementptr inbounds [501 x i8], [501 x i8]* %2, i64 0, i64 0
  %23 = load i32, i32* %5, align 4
  %24 = sext i32 %23 to i64
  %25 = getelementptr inbounds i8, i8* %22, i64 %24
  %26 = load i32, i32* %6, align 4
  %27 = sext i32 %26 to i64
  %28 = sub i64 0, %27
  %29 = getelementptr inbounds i8, i8* %25, i64 %28
  %30 = getelementptr inbounds i8, i8* %29, i64 1
  %31 = icmp ult i8* %21, %30
  br i1 %31, label %32, label %57

32:                                               ; preds = %20
  %33 = getelementptr inbounds [501 x i8], [501 x i8]* %3, i64 0, i64 0
  %34 = load i8*, i8** %7, align 8
  %35 = load i32, i32* %6, align 4
  %36 = sext i32 %35 to i64
  %37 = call i8* @strncpy(i8* %33, i8* %34, i64 %36) #5
  %38 = getelementptr inbounds [501 x i8], [501 x i8]* %3, i64 0, i64 0
  %39 = load i32, i32* %6, align 4
  %40 = sext i32 %39 to i64
  %41 = getelementptr inbounds i8, i8* %38, i64 %40
  store i8 0, i8* %41, align 1
  %42 = getelementptr inbounds [501 x i8], [501 x i8]* %4, i64 0, i64 0
  %43 = getelementptr inbounds [501 x i8], [501 x i8]* %3, i64 0, i64 0
  %44 = call i8* @strcpy(i8* %42, i8* %43) #5
  %45 = getelementptr inbounds [501 x i8], [501 x i8]* %3, i64 0, i64 0
  %46 = getelementptr inbounds [501 x i8], [501 x i8]* %4, i64 0, i64 0
  %47 = call i8* @reverse(i8* %46)
  %48 = call i32 @strcmp(i8* %45, i8* %47) #4
  %49 = icmp eq i32 %48, 0
  br i1 %49, label %50, label %53

50:                                               ; preds = %32
  %51 = getelementptr inbounds [501 x i8], [501 x i8]* %3, i64 0, i64 0
  %52 = call i32 (i8*, ...) @printf(i8* getelementptr inbounds ([4 x i8], [4 x i8]* @.str, i64 0, i64 0), i8* %51)
  br label %53

53:                                               ; preds = %50, %32
  br label %54

54:                                               ; preds = %53
  %55 = load i8*, i8** %7, align 8
  %56 = getelementptr inbounds i8, i8* %55, i32 1
  store i8* %56, i8** %7, align 8
  br label %20

57:                                               ; preds = %20
  br label %58

58:                                               ; preds = %57
  %59 = load i32, i32* %6, align 4
  %60 = add nsw i32 %59, 1
  store i32 %60, i32* %6, align 4
  br label %14

61:                                               ; preds = %14
  ret i32 0
}

declare dso_local i32 @gets(...) #1

; Function Attrs: nounwind readonly
declare dso_local i64 @strlen(i8*) #2

; Function Attrs: nounwind
declare dso_local i8* @strncpy(i8*, i8*, i64) #3

; Function Attrs: nounwind
declare dso_local i8* @strcpy(i8*, i8*) #3

; Function Attrs: nounwind readonly
declare dso_local i32 @strcmp(i8*, i8*) #2

; Function Attrs: noinline nounwind uwtable
define dso_local i8* @reverse(i8* %0) #0 {
  %2 = alloca i8*, align 8
  %3 = alloca [501 x i8], align 16
  %4 = alloca i32, align 4
  store i8* %0, i8** %2, align 8
  %5 = getelementptr inbounds [501 x i8], [501 x i8]* %3, i64 0, i64 0
  %6 = load i8*, i8** %2, align 8
  %7 = call i8* @strcpy(i8* %5, i8* %6) #5
  store i32 0, i32* %4, align 4
  br label %8

8:                                                ; preds = %29, %1
  %9 = load i32, i32* %4, align 4
  %10 = sext i32 %9 to i64
  %11 = load i8*, i8** %2, align 8
  %12 = call i64 @strlen(i8* %11) #4
  %13 = icmp ult i64 %10, %12
  br i1 %13, label %14, label %32

14:                                               ; preds = %8
  %15 = getelementptr inbounds [501 x i8], [501 x i8]* %3, i64 0, i64 0
  %16 = load i8*, i8** %2, align 8
  %17 = call i64 @strlen(i8* %16) #4
  %18 = getelementptr inbounds i8, i8* %15, i64 %17
  %19 = load i32, i32* %4, align 4
  %20 = sext i32 %19 to i64
  %21 = sub i64 0, %20
  %22 = getelementptr inbounds i8, i8* %18, i64 %21
  %23 = getelementptr inbounds i8, i8* %22, i64 -1
  %24 = load i8, i8* %23, align 1
  %25 = load i8*, i8** %2, align 8
  %26 = load i32, i32* %4, align 4
  %27 = sext i32 %26 to i64
  %28 = getelementptr inbounds i8, i8* %25, i64 %27
  store i8 %24, i8* %28, align 1
  br label %29

29:                                               ; preds = %14
  %30 = load i32, i32* %4, align 4
  %31 = add nsw i32 %30, 1
  store i32 %31, i32* %4, align 4
  br label %8

32:                                               ; preds = %8
  %33 = load i8*, i8** %2, align 8
  ret i8* %33
}

declare dso_local i32 @printf(i8*, ...) #1


!llvm.module.flags = !{!0}
!llvm.ident = !{!1}

!0 = !{i32 1, !"wchar_size", i32 4}
!1 = !{!"clang version 10.0.0-4ubuntu1 "}
